; Function Attrs: nounwind uwtable
define internal ptr @complex_pos(ptr noundef %0) #9 {
  %2 = getelementptr i8, ptr %0, i64 8
  %.val = load ptr, ptr %2, align 8, !tbaa !8
  %.not = icmp eq ptr %.val, @PyComplex_Type
  br i1 %.not, label %3, label %8

3:                                                ; preds = %1
  %4 = load i32, ptr %0, align 8, !tbaa !12
  %5 = icmp slt i32 %4, 0
  br i1 %5, label %_Py_NewRef.exit, label %6

6:                                                ; preds = %3
  %7 = add nuw i32 %4, 1
  store i32 %7, ptr %0, align 8, !tbaa !12
  br label %_Py_NewRef.exit

8:                                                ; preds = %1
  %9 = getelementptr inbounds nuw i8, ptr %0, i64 16
  %10 = load double, ptr %9, align 8
  %11 = getelementptr inbounds nuw i8, ptr %0, i64 24
  %12 = load double, ptr %11, align 8
  %13 = tail call ptr @PyObject_Malloc(i64 noundef 32) #16
  %14 = icmp eq ptr %13, null
  br i1 %14, label %15, label %17

15:                                               ; preds = %8
  %16 = tail call ptr @PyErr_NoMemory() #16
  br label %_Py_NewRef.exit

17:                                               ; preds = %8
  %18 = getelementptr inbounds nuw i8, ptr %13, i64 8
  store ptr @PyComplex_Type, ptr %18, align 8, !tbaa !8
  %19 = load i32, ptr @PyComplex_Type, align 8, !tbaa !12
  %20 = icmp slt i32 %19, 0
  br i1 %20, label %_PyObject_Init.exit.i, label %21

21:                                               ; preds = %17
  %22 = add nuw i32 %19, 1
  store i32 %22, ptr @PyComplex_Type, align 8, !tbaa !12
  br label %_PyObject_Init.exit.i

_PyObject_Init.exit.i:                            ; preds = %21, %17
  tail call void @_Py_NewReference(ptr noundef nonnull %13) #16
  %23 = getelementptr inbounds nuw i8, ptr %13, i64 16
  store double %10, ptr %23, align 8, !tbaa !13
  %.sroa.2.0..sroa_idx.i = getelementptr inbounds nuw i8, ptr %13, i64 24
  store double %12, ptr %.sroa.2.0..sroa_idx.i, align 8, !tbaa !13
  br label %_Py_NewRef.exit

_Py_NewRef.exit:                                  ; preds = %_PyObject_Init.exit.i, %15, %6, %3
  %.0 = phi ptr [ %0, %3 ], [ %0, %6 ], [ %16, %15 ], [ %13, %_PyObject_Init.exit.i ]
  ret ptr %.0
}